target datalayout = "e-m:e-p270:32:32-p271:32:32-p272:64:64-i64:64-i128:128-f80:128-n8:16:32:64-S128"
target triple = "x86_64-pc-linux-gnu"

%class.btVector3 = type { [4 x float] }
%class.btPlane = type { %class.btVector3, float }

; Function Attrs: inlinehint mustprogress nounwind uwtable
define linkonce_odr dso_local void @_ZN9btVector3C2ERKfS1_S1_(ptr noundef nonnull align 4 dereferenceable(16) %0, ptr noundef nonnull align 4 dereferenceable(4) %1, ptr noundef nonnull align 4 dereferenceable(4) %2, ptr noundef nonnull align 4 dereferenceable(4) %3) unnamed_addr #5 comdat align 2 {
  %5 = alloca ptr, align 8
  %6 = alloca ptr, align 8
  %7 = alloca ptr, align 8
  %8 = alloca ptr, align 8
  store ptr %0, ptr %5, align 8, !tbaa !17
  store ptr %1, ptr %6, align 8, !tbaa !19
  store ptr %2, ptr %7, align 8, !tbaa !19
  store ptr %3, ptr %8, align 8, !tbaa !19
  %9 = load ptr, ptr %5, align 8
  %10 = load ptr, ptr %6, align 8, !tbaa !19
  %11 = load float, ptr %10, align 4, !tbaa !15
  %12 = getelementptr inbounds nuw %class.btVector3, ptr %9, i32 0, i32 0
  %13 = getelementptr inbounds [4 x float], ptr %12, i64 0, i64 0
  store float %11, ptr %13, align 4, !tbaa !15
  %14 = load ptr, ptr %7, align 8, !tbaa !19
  %15 = load float, ptr %14, align 4, !tbaa !15
  %16 = getelementptr inbounds nuw %class.btVector3, ptr %9, i32 0, i32 0
  %17 = getelementptr inbounds [4 x float], ptr %16, i64 0, i64 1
  store float %15, ptr %17, align 4, !tbaa !15
  %18 = load ptr, ptr %8, align 8, !tbaa !19
  %19 = load float, ptr %18, align 4, !tbaa !15
  %20 = getelementptr inbounds nuw %class.btVector3, ptr %9, i32 0, i32 0
  %21 = getelementptr inbounds [4 x float], ptr %20, i64 0, i64 2
  store float %19, ptr %21, align 4, !tbaa !15
  %22 = getelementptr inbounds nuw %class.btVector3, ptr %9, i32 0, i32 0
  %23 = getelementptr inbounds [4 x float], ptr %22, i64 0, i64 3
  store float 0.000000e+00, ptr %23, align 4, !tbaa !15
  ret void
}

; Function Attrs: inlinehint mustprogress nounwind uwtable
define linkonce_odr dso_local noundef nonnull align 4 dereferenceable(4) ptr @_ZNK9btVector34getZEv(ptr noundef nonnull align 4 dereferenceable(16) %0) #5 comdat align 2 {
  %2 = alloca ptr, align 8
  store ptr %0, ptr %2, align 8, !tbaa !17
  %3 = load ptr, ptr %2, align 8
  %4 = getelementptr inbounds nuw %class.btVector3, ptr %3, i32 0, i32 0
  %5 = getelementptr inbounds [4 x float], ptr %4, i64 0, i64 2
  ret ptr %5
}

; Function Attrs: inlinehint mustprogress nounwind uwtable
define linkonce_odr dso_local noundef nonnull align 4 dereferenceable(4) ptr @_ZNK9btVector34getYEv(ptr noundef nonnull align 4 dereferenceable(16) %0) #5 comdat align 2 {
  %2 = alloca ptr, align 8
  store ptr %0, ptr %2, align 8, !tbaa !17
  %3 = load ptr, ptr %2, align 8
  %4 = getelementptr inbounds nuw %class.btVector3, ptr %3, i32 0, i32 0
  %5 = getelementptr inbounds [4 x float], ptr %4, i64 0, i64 1
  ret ptr %5
}

; Function Attrs: inlinehint mustprogress nounwind uwtable
define linkonce_odr dso_local noundef nonnull align 4 dereferenceable(4) ptr @_ZNK9btVector34getXEv(ptr noundef nonnull align 4 dereferenceable(16) %0) #5 comdat align 2 {
  %2 = alloca ptr, align 8
  store ptr %0, ptr %2, align 8, !tbaa !17
  %3 = load ptr, ptr %2, align 8
  %4 = getelementptr inbounds nuw %class.btVector3, ptr %3, i32 0, i32 0
  %5 = getelementptr inbounds [4 x float], ptr %4, i64 0, i64 0
  ret ptr %5
}

; Function Attrs: inlinehint mustprogress nounwind uwtable
define linkonce_odr dso_local noundef nonnull align 4 dereferenceable(16) ptr @_ZN9btVector3pLERKS_(ptr noundef nonnull align 4 dereferenceable(16) %0, ptr noundef nonnull align 4 dereferenceable(16) %1) #5 comdat align 2 {
  %3 = alloca ptr, align 8
  %4 = alloca ptr, align 8
  store ptr %0, ptr %3, align 8, !tbaa !17
  store ptr %1, ptr %4, align 8, !tbaa !17
  %5 = load ptr, ptr %3, align 8
  %6 = load ptr, ptr %4, align 8, !tbaa !17
  %7 = getelementptr inbounds nuw %class.btVector3, ptr %6, i32 0, i32 0
  %8 = getelementptr inbounds [4 x float], ptr %7, i64 0, i64 0
  %9 = load float, ptr %8, align 4, !tbaa !15
  %10 = getelementptr inbounds nuw %class.btVector3, ptr %5, i32 0, i32 0
  %11 = getelementptr inbounds [4 x float], ptr %10, i64 0, i64 0
  %12 = load float, ptr %11, align 4, !tbaa !15
  %13 = fadd float %12, %9
  store float %13, ptr %11, align 4, !tbaa !15
  %14 = load ptr, ptr %4, align 8, !tbaa !17
  %15 = getelementptr inbounds nuw %class.btVector3, ptr %14, i32 0, i32 0
  %16 = getelementptr inbounds [4 x float], ptr %15, i64 0, i64 1
  %17 = load float, ptr %16, align 4, !tbaa !15
  %18 = getelementptr inbounds nuw %class.btVector3, ptr %5, i32 0, i32 0
  %19 = getelementptr inbounds [4 x float], ptr %18, i64 0, i64 1
  %20 = load float, ptr %19, align 4, !tbaa !15
  %21 = fadd float %20, %17
  store float %21, ptr %19, align 4, !tbaa !15
  %22 = load ptr, ptr %4, align 8, !tbaa !17
  %23 = getelementptr inbounds nuw %class.btVector3, ptr %22, i32 0, i32 0
  %24 = getelementptr inbounds [4 x float], ptr %23, i64 0, i64 2
  %25 = load float, ptr %24, align 4, !tbaa !15
  %26 = getelementptr inbounds nuw %class.btVector3, ptr %5, i32 0, i32 0
  %27 = getelementptr inbounds [4 x float], ptr %26, i64 0, i64 2
  %28 = load float, ptr %27, align 4, !tbaa !15
  %29 = fadd float %28, %25
  store float %29, ptr %27, align 4, !tbaa !15
  ret ptr %5
}

; Function Attrs: inlinehint mustprogress nounwind uwtable
define linkonce_odr dso_local noundef nonnull align 4 dereferenceable(16) ptr @_ZN9btVector3mLERKf(ptr noundef nonnull align 4 dereferenceable(16) %0, ptr noundef nonnull align 4 dereferenceable(4) %1) #5 comdat align 2 {
  %3 = alloca ptr, align 8
  %4 = alloca ptr, align 8
  store ptr %0, ptr %3, align 8, !tbaa !17
  store ptr %1, ptr %4, align 8, !tbaa !19
  %5 = load ptr, ptr %3, align 8
  %6 = load ptr, ptr %4, align 8, !tbaa !19
  %7 = load float, ptr %6, align 4, !tbaa !15
  %8 = getelementptr inbounds nuw %class.btVector3, ptr %5, i32 0, i32 0
  %9 = getelementptr inbounds [4 x float], ptr %8, i64 0, i64 0
  %10 = load float, ptr %9, align 4, !tbaa !15
  %11 = fmul float %10, %7
  store float %11, ptr %9, align 4, !tbaa !15
  %12 = load ptr, ptr %4, align 8, !tbaa !19
  %13 = load float, ptr %12, align 4, !tbaa !15
  %14 = getelementptr inbounds nuw %class.btVector3, ptr %5, i32 0, i32 0
  %15 = getelementptr inbounds [4 x float], ptr %14, i64 0, i64 1
  %16 = load float, ptr %15, align 4, !tbaa !15
  %17 = fmul float %16, %13
  store float %17, ptr %15, align 4, !tbaa !15
  %18 = load ptr, ptr %4, align 8, !tbaa !19
  %19 = load float, ptr %18, align 4, !tbaa !15
  %20 = getelementptr inbounds nuw %class.btVector3, ptr %5, i32 0, i32 0
  %21 = getelementptr inbounds [4 x float], ptr %20, i64 0, i64 2
  %22 = load float, ptr %21, align 4, !tbaa !15
  %23 = fmul float %22, %19
  store float %23, ptr %21, align 4, !tbaa !15
  ret ptr %5
}

; Function Attrs: inlinehint mustprogress nounwind uwtable
define linkonce_odr dso_local noundef float @_ZNK9btVector33dotERKS_(ptr noundef nonnull align 4 dereferenceable(16) %0, ptr noundef nonnull align 4 dereferenceable(16) %1) #5 comdat align 2 {
  %3 = alloca ptr, align 8
  %4 = alloca ptr, align 8
  store ptr %0, ptr %3, align 8, !tbaa !17
  store ptr %1, ptr %4, align 8, !tbaa !17
  %5 = load ptr, ptr %3, align 8
  %6 = getelementptr inbounds nuw %class.btVector3, ptr %5, i32 0, i32 0
  %7 = getelementptr inbounds [4 x float], ptr %6, i64 0, i64 0
  %8 = load float, ptr %7, align 4, !tbaa !15
  %9 = load ptr, ptr %4, align 8, !tbaa !17
  %10 = getelementptr inbounds nuw %class.btVector3, ptr %9, i32 0, i32 0
  %11 = getelementptr inbounds [4 x float], ptr %10, i64 0, i64 0
  %12 = load float, ptr %11, align 4, !tbaa !15
  %13 = getelementptr inbounds nuw %class.btVector3, ptr %5, i32 0, i32 0
  %14 = getelementptr inbounds [4 x float], ptr %13, i64 0, i64 1
  %15 = load float, ptr %14, align 4, !tbaa !15
  %16 = load ptr, ptr %4, align 8, !tbaa !17
  %17 = getelementptr inbounds nuw %class.btVector3, ptr %16, i32 0, i32 0
  %18 = getelementptr inbounds [4 x float], ptr %17, i64 0, i64 1
  %19 = load float, ptr %18, align 4, !tbaa !15
  %20 = fmul float %15, %19
  %21 = call float @llvm.fmuladd.f32(float %8, float %12, float %20)
  %22 = getelementptr inbounds nuw %class.btVector3, ptr %5, i32 0, i32 0
  %23 = getelementptr inbounds [4 x float], ptr %22, i64 0, i64 2
  %24 = load float, ptr %23, align 4, !tbaa !15
  %25 = load ptr, ptr %4, align 8, !tbaa !17
  %26 = getelementptr inbounds nuw %class.btVector3, ptr %25, i32 0, i32 0
  %27 = getelementptr inbounds [4 x float], ptr %26, i64 0, i64 2
  %28 = load float, ptr %27, align 4, !tbaa !15
  %29 = call float @llvm.fmuladd.f32(float %24, float %28, float %21)
  ret float %29
}

; Function Attrs: inlinehint mustprogress uwtable
define linkonce_odr dso_local { <2 x float>, <2 x float> } @_ZNK9btVector35crossERKS_(ptr noundef nonnull align 4 dereferenceable(16) %0, ptr noundef nonnull align 4 dereferenceable(16) %1) #6 comdat align 2 {
  %3 = alloca %class.btVector3, align 4
  %4 = alloca ptr, align 8
  %5 = alloca ptr, align 8
  %6 = alloca float, align 4
  %7 = alloca float, align 4
  %8 = alloca float, align 4
  store ptr %0, ptr %4, align 8, !tbaa !17
  store ptr %1, ptr %5, align 8, !tbaa !17
  %9 = load ptr, ptr %4, align 8
  call void @llvm.lifetime.start.p0(i64 4, ptr %6) #14
  %10 = getelementptr inbounds nuw %class.btVector3, ptr %9, i32 0, i32 0
  %11 = getelementptr inbounds [4 x float], ptr %10, i64 0, i64 1
  %12 = load float, ptr %11, align 4, !tbaa !15
  %13 = load ptr, ptr %5, align 8, !tbaa !17
  %14 = getelementptr inbounds nuw %class.btVector3, ptr %13, i32 0, i32 0
  %15 = getelementptr inbounds [4 x float], ptr %14, i64 0, i64 2
  %16 = load float, ptr %15, align 4, !tbaa !15
  %17 = getelementptr inbounds nuw %class.btVector3, ptr %9, i32 0, i32 0
  %18 = getelementptr inbounds [4 x float], ptr %17, i64 0, i64 2
  %19 = load float, ptr %18, align 4, !tbaa !15
  %20 = load ptr, ptr %5, align 8, !tbaa !17
  %21 = getelementptr inbounds nuw %class.btVector3, ptr %20, i32 0, i32 0
  %22 = getelementptr inbounds [4 x float], ptr %21, i64 0, i64 1
  %23 = load float, ptr %22, align 4, !tbaa !15
  %24 = fmul float %19, %23
  %25 = fneg float %24
  %26 = call float @llvm.fmuladd.f32(float %12, float %16, float %25)
  store float %26, ptr %6, align 4, !tbaa !15
  call void @llvm.lifetime.start.p0(i64 4, ptr %7) #14
  %27 = getelementptr inbounds nuw %class.btVector3, ptr %9, i32 0, i32 0
  %28 = getelementptr inbounds [4 x float], ptr %27, i64 0, i64 2
  %29 = load float, ptr %28, align 4, !tbaa !15
  %30 = load ptr, ptr %5, align 8, !tbaa !17
  %31 = getelementptr inbounds nuw %class.btVector3, ptr %30, i32 0, i32 0
  %32 = getelementptr inbounds [4 x float], ptr %31, i64 0, i64 0
  %33 = load float, ptr %32, align 4, !tbaa !15
  %34 = getelementptr inbounds nuw %class.btVector3, ptr %9, i32 0, i32 0
  %35 = getelementptr inbounds [4 x float], ptr %34, i64 0, i64 0
  %36 = load float, ptr %35, align 4, !tbaa !15
  %37 = load ptr, ptr %5, align 8, !tbaa !17
  %38 = getelementptr inbounds nuw %class.btVector3, ptr %37, i32 0, i32 0
  %39 = getelementptr inbounds [4 x float], ptr %38, i64 0, i64 2
  %40 = load float, ptr %39, align 4, !tbaa !15
  %41 = fmul float %36, %40
  %42 = fneg float %41
  %43 = call float @llvm.fmuladd.f32(float %29, float %33, float %42)
  store float %43, ptr %7, align 4, !tbaa !15
  call void @llvm.lifetime.start.p0(i64 4, ptr %8) #14
  %44 = getelementptr inbounds nuw %class.btVector3, ptr %9, i32 0, i32 0
  %45 = getelementptr inbounds [4 x float], ptr %44, i64 0, i64 0
  %46 = load float, ptr %45, align 4, !tbaa !15
  %47 = load ptr, ptr %5, align 8, !tbaa !17
  %48 = getelementptr inbounds nuw %class.btVector3, ptr %47, i32 0, i32 0
  %49 = getelementptr inbounds [4 x float], ptr %48, i64 0, i64 1
  %50 = load float, ptr %49, align 4, !tbaa !15
  %51 = getelementptr inbounds nuw %class.btVector3, ptr %9, i32 0, i32 0
  %52 = getelementptr inbounds [4 x float], ptr %51, i64 0, i64 1
  %53 = load float, ptr %52, align 4, !tbaa !15
  %54 = load ptr, ptr %5, align 8, !tbaa !17
  %55 = getelementptr inbounds nuw %class.btVector3, ptr %54, i32 0, i32 0
  %56 = getelementptr inbounds [4 x float], ptr %55, i64 0, i64 0
  %57 = load float, ptr %56, align 4, !tbaa !15
  %58 = fmul float %53, %57
  %59 = fneg float %58
  %60 = call float @llvm.fmuladd.f32(float %46, float %50, float %59)
  store float %60, ptr %8, align 4, !tbaa !15
  call void @_ZN9btVector3C2ERKfS1_S1_(ptr noundef nonnull align 4 dereferenceable(16) %3, ptr noundef nonnull align 4 dereferenceable(4) %6, ptr noundef nonnull align 4 dereferenceable(4) %7, ptr noundef nonnull align 4 dereferenceable(4) %8)
  call void @llvm.lifetime.end.p0(i64 4, ptr %8) #14
  call void @llvm.lifetime.end.p0(i64 4, ptr %7) #14
  call void @llvm.lifetime.end.p0(i64 4, ptr %6) #14
  %61 = getelementptr inbounds nuw %class.btVector3, ptr %3, i32 0, i32 0
  %62 = load { <2 x float>, <2 x float> }, ptr %61, align 4
  ret { <2 x float>, <2 x float> } %62
}

; Function Attrs: inlinehint mustprogress nounwind uwtable
define linkonce_odr dso_local void @_ZN9btVector3C2Ev(ptr noundef nonnull align 4 dereferenceable(16) %0) unnamed_addr #5 comdat align 2 {
  %2 = alloca ptr, align 8
  store ptr %0, ptr %2, align 8, !tbaa !17
  ret void
}

; Function Attrs: mustprogress uwtable
define dso_local { <2 x float>, <2 x float> } @_Z22ThreePlaneIntersectionRK7btPlaneS1_S1_(ptr noundef nonnull align 4 dereferenceable(20) %0, ptr noundef nonnull align 4 dereferenceable(20) %1, ptr noundef nonnull align 4 dereferenceable(20) %2) #2 {
  %4 = alloca %class.btVector3, align 4
  %5 = alloca ptr, align 8
  %6 = alloca ptr, align 8
  %7 = alloca ptr, align 8
  %8 = alloca %class.btVector3, align 4
  %9 = alloca %class.btVector3, align 4
  %10 = alloca %class.btVector3, align 4
  %11 = alloca %class.btVector3, align 4
  %12 = alloca %class.btVector3, align 4
  %13 = alloca %class.btVector3, align 4
  %14 = alloca %class.btVector3, align 4
  %15 = alloca %class.btVector3, align 4
  %16 = alloca %class.btVector3, align 4
  %17 = alloca float, align 4
  %18 = alloca %class.btVector3, align 4
  store ptr %0, ptr %5, align 8, !tbaa !12
  store ptr %1, ptr %6, align 8, !tbaa !12
  store ptr %2, ptr %7, align 8, !tbaa !12
  call void @llvm.lifetime.start.p0(i64 16, ptr %8) #14
  %19 = load ptr, ptr %5, align 8, !tbaa !12
  %20 = getelementptr inbounds nuw %class.btPlane, ptr %19, i32 0, i32 0
  call void @llvm.memcpy.p0.p0.i64(ptr align 4 %8, ptr align 4 %20, i64 16, i1 false), !tbaa.struct !14
  call void @llvm.lifetime.start.p0(i64 16, ptr %9) #14
  %21 = load ptr, ptr %6, align 8, !tbaa !12
  %22 = getelementptr inbounds nuw %class.btPlane, ptr %21, i32 0, i32 0
  call void @llvm.memcpy.p0.p0.i64(ptr align 4 %9, ptr align 4 %22, i64 16, i1 false), !tbaa.struct !14
  call void @llvm.lifetime.start.p0(i64 16, ptr %10) #14
  %23 = load ptr, ptr %7, align 8, !tbaa !12
  %24 = getelementptr inbounds nuw %class.btPlane, ptr %23, i32 0, i32 0
  call void @llvm.memcpy.p0.p0.i64(ptr align 4 %10, ptr align 4 %24, i64 16, i1 false), !tbaa.struct !14
  call void @llvm.lifetime.start.p0(i64 16, ptr %11) #14
  call void @_ZN9btVector3C2Ev(ptr noundef nonnull align 4 dereferenceable(16) %11)
  call void @llvm.lifetime.start.p0(i64 16, ptr %12) #14
  %25 = call { <2 x float>, <2 x float> } @_ZNK9btVector35crossERKS_(ptr noundef nonnull align 4 dereferenceable(16) %9, ptr noundef nonnull align 4 dereferenceable(16) %10)
  %26 = getelementptr inbounds nuw %class.btVector3, ptr %12, i32 0, i32 0
  %27 = getelementptr inbounds nuw { <2 x float>, <2 x float> }, ptr %26, i32 0, i32 0
  %28 = extractvalue { <2 x float>, <2 x float> } %25, 0
  store <2 x float> %28, ptr %27, align 4
  %29 = getelementptr inbounds nuw { <2 x float>, <2 x float> }, ptr %26, i32 0, i32 1
  %30 = extractvalue { <2 x float>, <2 x float> } %25, 1
  store <2 x float> %30, ptr %29, align 4
  call void @llvm.memcpy.p0.p0.i64(ptr align 4 %11, ptr align 4 %12, i64 16, i1 false), !tbaa.struct !14
  call void @llvm.lifetime.end.p0(i64 16, ptr %12) #14
  call void @llvm.lifetime.start.p0(i64 16, ptr %13) #14
  call void @_ZN9btVector3C2Ev(ptr noundef nonnull align 4 dereferenceable(16) %13)
  call void @llvm.lifetime.start.p0(i64 16, ptr %14) #14
  %31 = call { <2 x float>, <2 x float> } @_ZNK9btVector35crossERKS_(ptr noundef nonnull align 4 dereferenceable(16) %10, ptr noundef nonnull align 4 dereferenceable(16) %8)
  %32 = getelementptr inbounds nuw %class.btVector3, ptr %14, i32 0, i32 0
  %33 = getelementptr inbounds nuw { <2 x float>, <2 x float> }, ptr %32, i32 0, i32 0
  %34 = extractvalue { <2 x float>, <2 x float> } %31, 0
  store <2 x float> %34, ptr %33, align 4
  %35 = getelementptr inbounds nuw { <2 x float>, <2 x float> }, ptr %32, i32 0, i32 1
  %36 = extractvalue { <2 x float>, <2 x float> } %31, 1
  store <2 x float> %36, ptr %35, align 4
  call void @llvm.memcpy.p0.p0.i64(ptr align 4 %13, ptr align 4 %14, i64 16, i1 false), !tbaa.struct !14
  call void @llvm.lifetime.end.p0(i64 16, ptr %14) #14
  call void @llvm.lifetime.start.p0(i64 16, ptr %15) #14
  call void @_ZN9btVector3C2Ev(ptr noundef nonnull align 4 dereferenceable(16) %15)
  call void @llvm.lifetime.start.p0(i64 16, ptr %16) #14
  %37 = call { <2 x float>, <2 x float> } @_ZNK9btVector35crossERKS_(ptr noundef nonnull align 4 dereferenceable(16) %8, ptr noundef nonnull align 4 dereferenceable(16) %9)
  %38 = getelementptr inbounds nuw %class.btVector3, ptr %16, i32 0, i32 0
  %39 = getelementptr inbounds nuw { <2 x float>, <2 x float> }, ptr %38, i32 0, i32 0
  %40 = extractvalue { <2 x float>, <2 x float> } %37, 0
  store <2 x float> %40, ptr %39, align 4
  %41 = getelementptr inbounds nuw { <2 x float>, <2 x float> }, ptr %38, i32 0, i32 1
  %42 = extractvalue { <2 x float>, <2 x float> } %37, 1
  store <2 x float> %42, ptr %41, align 4
  call void @llvm.memcpy.p0.p0.i64(ptr align 4 %15, ptr align 4 %16, i64 16, i1 false), !tbaa.struct !14
  call void @llvm.lifetime.end.p0(i64 16, ptr %16) #14
  call void @llvm.lifetime.start.p0(i64 4, ptr %17) #14
  %43 = call noundef float @_ZNK9btVector33dotERKS_(ptr noundef nonnull align 4 dereferenceable(16) %8, ptr noundef nonnull align 4 dereferenceable(16) %11)
  store float %43, ptr %17, align 4, !tbaa !15
  %44 = load float, ptr %17, align 4, !tbaa !15
  %45 = fdiv float -1.000000e+00, %44
  store float %45, ptr %17, align 4, !tbaa !15
  %46 = load ptr, ptr %5, align 8, !tbaa !12
  %47 = getelementptr inbounds nuw %class.btPlane, ptr %46, i32 0, i32 1
  %48 = call noundef nonnull align 4 dereferenceable(16) ptr @_ZN9btVector3mLERKf(ptr noundef nonnull align 4 dereferenceable(16) %11, ptr noundef nonnull align 4 dereferenceable(4) %47)
  %49 = load ptr, ptr %6, align 8, !tbaa !12
  %50 = getelementptr inbounds nuw %class.btPlane, ptr %49, i32 0, i32 1
  %51 = call noundef nonnull align 4 dereferenceable(16) ptr @_ZN9btVector3mLERKf(ptr noundef nonnull align 4 dereferenceable(16) %13, ptr noundef nonnull align 4 dereferenceable(4) %50)
  %52 = load ptr, ptr %7, align 8, !tbaa !12
  %53 = getelementptr inbounds nuw %class.btPlane, ptr %52, i32 0, i32 1
  %54 = call noundef nonnull align 4 dereferenceable(16) ptr @_ZN9btVector3mLERKf(ptr noundef nonnull align 4 dereferenceable(16) %15, ptr noundef nonnull align 4 dereferenceable(4) %53)
  call void @llvm.lifetime.start.p0(i64 16, ptr %18) #14
  call void @llvm.memcpy.p0.p0.i64(ptr align 4 %18, ptr align 4 %11, i64 16, i1 false), !tbaa.struct !14
  %55 = call noundef nonnull align 4 dereferenceable(16) ptr @_ZN9btVector3pLERKS_(ptr noundef nonnull align 4 dereferenceable(16) %18, ptr noundef nonnull align 4 dereferenceable(16) %13)
  %56 = call noundef nonnull align 4 dereferenceable(16) ptr @_ZN9btVector3pLERKS_(ptr noundef nonnull align 4 dereferenceable(16) %18, ptr noundef nonnull align 4 dereferenceable(16) %15)
  %57 = call noundef nonnull align 4 dereferenceable(16) ptr @_ZN9btVector3mLERKf(ptr noundef nonnull align 4 dereferenceable(16) %18, ptr noundef nonnull align 4 dereferenceable(4) %17)
  %58 = call noundef nonnull align 4 dereferenceable(4) ptr @_ZNK9btVector34getXEv(ptr noundef nonnull align 4 dereferenceable(16) %18)
  %59 = call noundef nonnull align 4 dereferenceable(4) ptr @_ZNK9btVector34getYEv(ptr noundef nonnull align 4 dereferenceable(16) %18)
  %60 = call noundef nonnull align 4 dereferenceable(4) ptr @_ZNK9btVector34getZEv(ptr noundef nonnull align 4 dereferenceable(16) %18)
  call void @_ZN9btVector3C2ERKfS1_S1_(ptr noundef nonnull align 4 dereferenceable(16) %4, ptr noundef nonnull align 4 dereferenceable(4) %58, ptr noundef nonnull align 4 dereferenceable(4) %59, ptr noundef nonnull align 4 dereferenceable(4) %60)
  call void @llvm.lifetime.end.p0(i64 16, ptr %18) #14
  call void @llvm.lifetime.end.p0(i64 4, ptr %17) #14
  call void @llvm.lifetime.end.p0(i64 16, ptr %15) #14
  call void @llvm.lifetime.end.p0(i64 16, ptr %13) #14
  call void @llvm.lifetime.end.p0(i64 16, ptr %11) #14
  call void @llvm.lifetime.end.p0(i64 16, ptr %10) #14
  call void @llvm.lifetime.end.p0(i64 16, ptr %9) #14
  call void @llvm.lifetime.end.p0(i64 16, ptr %8) #14
  %61 = getelementptr inbounds nuw %class.btVector3, ptr %4, i32 0, i32 0
  %62 = load { <2 x float>, <2 x float> }, ptr %61, align 4
  ret { <2 x float>, <2 x float> } %62
}