; Function Attrs: mustprogress nofree norecurse nosync nounwind willreturn memory(argmem: read) uwtable
define dso_local { <2 x float>, <2 x float> } @_Z22ThreePlaneIntersectionRK7btPlaneS1_S1_(ptr noundef nonnull readonly align 4 captures(none) dereferenceable(20) %0, ptr noundef nonnull readonly align 4 captures(none) dereferenceable(20) %1, ptr noundef nonnull readonly align 4 captures(none) dereferenceable(20) %2) local_unnamed_addr #0 {
  %.sroa.080.0.copyload = load float, ptr %0, align 4
  %.sroa.6.0..sroa_idx = getelementptr inbounds nuw i8, ptr %0, i64 4
  %.sroa.6.0.copyload = load float, ptr %.sroa.6.0..sroa_idx, align 4
  %.sroa.985.0..sroa_idx = getelementptr inbounds nuw i8, ptr %0, i64 8
  %.sroa.985.0.copyload = load float, ptr %.sroa.985.0..sroa_idx, align 4
  %.sroa.073.0.copyload = load float, ptr %1, align 4
  %.sroa.575.0..sroa_idx = getelementptr inbounds nuw i8, ptr %1, i64 4
  %.sroa.575.0.copyload = load float, ptr %.sroa.575.0..sroa_idx, align 4
  %.sroa.777.0..sroa_idx = getelementptr inbounds nuw i8, ptr %1, i64 8
  %.sroa.777.0.copyload = load float, ptr %.sroa.777.0..sroa_idx, align 4
  %.sroa.068.0.copyload = load float, ptr %2, align 4
  %.sroa.5.0..sroa_idx = getelementptr inbounds nuw i8, ptr %2, i64 4
  %.sroa.5.0.copyload = load float, ptr %.sroa.5.0..sroa_idx, align 4
  %.sroa.7.0..sroa_idx = getelementptr inbounds nuw i8, ptr %2, i64 8
  %.sroa.7.0.copyload = load float, ptr %.sroa.7.0..sroa_idx, align 4
  %4 = fneg float %.sroa.5.0.copyload
  %5 = fmul float %.sroa.777.0.copyload, %4
  %6 = tail call float @llvm.fmuladd.f32(float %.sroa.575.0.copyload, float %.sroa.7.0.copyload, float %5)
  %7 = fneg float %.sroa.7.0.copyload
  %8 = fmul float %.sroa.073.0.copyload, %7
  %9 = tail call float @llvm.fmuladd.f32(float %.sroa.777.0.copyload, float %.sroa.068.0.copyload, float %8)
  %10 = fneg float %.sroa.068.0.copyload
  %11 = fmul float %.sroa.575.0.copyload, %10
  %12 = tail call float @llvm.fmuladd.f32(float %.sroa.073.0.copyload, float %.sroa.5.0.copyload, float %11)
  %13 = fneg float %.sroa.6.0.copyload
  %14 = fmul float %.sroa.7.0.copyload, %13
  %15 = tail call float @llvm.fmuladd.f32(float %.sroa.5.0.copyload, float %.sroa.985.0.copyload, float %14)
  %16 = fneg float %.sroa.985.0.copyload
  %17 = fmul float %.sroa.068.0.copyload, %16
  %18 = tail call float @llvm.fmuladd.f32(float %.sroa.7.0.copyload, float %.sroa.080.0.copyload, float %17)
  %19 = fneg float %.sroa.080.0.copyload
  %20 = fmul float %.sroa.5.0.copyload, %19
  %21 = tail call float @llvm.fmuladd.f32(float %.sroa.068.0.copyload, float %.sroa.6.0.copyload, float %20)
  %22 = fneg float %.sroa.575.0.copyload
  %23 = fmul float %.sroa.985.0.copyload, %22
  %24 = tail call float @llvm.fmuladd.f32(float %.sroa.6.0.copyload, float %.sroa.777.0.copyload, float %23)
  %25 = fneg float %.sroa.777.0.copyload
  %26 = fmul float %.sroa.080.0.copyload, %25
  %27 = tail call float @llvm.fmuladd.f32(float %.sroa.985.0.copyload, float %.sroa.073.0.copyload, float %26)
  %28 = fneg float %.sroa.073.0.copyload
  %29 = fmul float %.sroa.6.0.copyload, %28
  %30 = tail call float @llvm.fmuladd.f32(float %.sroa.080.0.copyload, float %.sroa.575.0.copyload, float %29)
  %31 = fmul float %.sroa.6.0.copyload, %9
  %32 = tail call float @llvm.fmuladd.f32(float %.sroa.080.0.copyload, float %6, float %31)
  %33 = tail call noundef float @llvm.fmuladd.f32(float %.sroa.985.0.copyload, float %12, float %32)
  %34 = fdiv float -1.000000e+00, %33
  %35 = getelementptr inbounds nuw i8, ptr %0, i64 16
  %36 = load float, ptr %35, align 4, !tbaa !4
  %37 = fmul float %36, %6
  %38 = fmul float %36, %9
  %39 = fmul float %12, %36
  %40 = getelementptr inbounds nuw i8, ptr %1, i64 16
  %41 = load float, ptr %40, align 4, !tbaa !4
  %42 = fmul float %41, %15
  %43 = fmul float %18, %41
  %44 = fmul float %21, %41
  %45 = getelementptr inbounds nuw i8, ptr %2, i64 16
  %46 = load float, ptr %45, align 4, !tbaa !4
  %47 = fmul float %24, %46
  %48 = fmul float %27, %46
  %49 = fmul float %30, %46
  %50 = fadd float %37, %42
  %51 = fadd float %43, %38
  %52 = fadd float %39, %44
  %53 = fadd float %47, %50
  %54 = fadd float %48, %51
  %55 = fadd float %49, %52
  %56 = fmul float %53, %34
  %57 = fmul float %54, %34
  %58 = fmul float %55, %34
  %.sroa.088.0.vec.insert = insertelement <2 x float> poison, float %56, i64 0
  %.sroa.088.4.vec.insert = insertelement <2 x float> %.sroa.088.0.vec.insert, float %57, i64 1
  %.sroa.3.12.vec.insert = insertelement <2 x float> <float poison, float 0.000000e+00>, float %58, i64 0
  %.fca.0.insert = insertvalue { <2 x float>, <2 x float> } poison, <2 x float> %.sroa.088.4.vec.insert, 0
  %.fca.1.insert = insertvalue { <2 x float>, <2 x float> } %.fca.0.insert, <2 x float> %.sroa.3.12.vec.insert, 1
  ret { <2 x float>, <2 x float> } %.fca.1.insert
}